; Function Attrs: mustprogress uwtable
define void @_ZN4YAML4LoadERSi(ptr dead_on_unwind noalias writable sret(%"class.YAML::Node") align 8 %0, ptr noundef nonnull align 8 dereferenceable(16) %1) local_unnamed_addr #0 personality ptr @__gxx_personality_v0 {
  %3 = alloca %"class.YAML::Parser", align 8
  %4 = alloca %"class.YAML::NodeBuilder", align 8
  call void @llvm.lifetime.start.p0(i64 16, ptr nonnull %3) #20
  call void @_ZN4YAML6ParserC1ERSi(ptr noundef nonnull align 8 dereferenceable(16) %3, ptr noundef nonnull align 8 dereferenceable(16) %1)
  call void @llvm.lifetime.start.p0(i64 112, ptr nonnull %4) #20
  invoke void @_ZN4YAML11NodeBuilderC1Ev(ptr noundef nonnull align 8 dereferenceable(112) %4)
          to label %5 unwind label %13

5:                                                ; preds = %2
  %6 = invoke noundef zeroext i1 @_ZN4YAML6Parser18HandleNextDocumentERNS_12EventHandlerE(ptr noundef nonnull align 8 dereferenceable(16) %3, ptr noundef nonnull align 8 dereferenceable(8) %4)
          to label %7 unwind label %15

7:                                                ; preds = %5
  br i1 %6, label %17, label %8

8:                                                ; preds = %7
  store i8 1, ptr %0, align 8, !tbaa !16
  %9 = getelementptr inbounds nuw i8, ptr %0, i64 8
  %10 = getelementptr inbounds nuw i8, ptr %0, i64 24
  store ptr %10, ptr %9, align 8, !tbaa !25
  %11 = getelementptr inbounds nuw i8, ptr %0, i64 16
  store i64 0, ptr %11, align 8, !tbaa !13
  store i8 0, ptr %10, align 8, !tbaa !26
  %12 = getelementptr inbounds nuw i8, ptr %0, i64 40
  call void @llvm.memset.p0.i64(ptr noundef nonnull align 8 dereferenceable(24) %12, i8 0, i64 24, i1 false)
  br label %18

13:                                               ; preds = %2
  %14 = landingpad { ptr, i32 }
          cleanup
  br label %19

15:                                               ; preds = %17, %5
  %16 = landingpad { ptr, i32 }
          cleanup
  call void @_ZN4YAML11NodeBuilderD1Ev(ptr noundef nonnull align 8 dereferenceable(112) %4) #20
  br label %19

17:                                               ; preds = %7
  invoke void @_ZN4YAML11NodeBuilder4RootEv(ptr dead_on_unwind writable sret(%"class.YAML::Node") align 8 %0, ptr noundef nonnull align 8 dereferenceable(112) %4)
          to label %18 unwind label %15

18:                                               ; preds = %17, %8
  call void @_ZN4YAML11NodeBuilderD1Ev(ptr noundef nonnull align 8 dereferenceable(112) %4) #20
  call void @llvm.lifetime.end.p0(i64 112, ptr nonnull %4) #20
  call void @_ZN4YAML6ParserD1Ev(ptr noundef nonnull align 8 dereferenceable(16) %3) #20
  call void @llvm.lifetime.end.p0(i64 16, ptr nonnull %3) #20
  ret void

19:                                               ; preds = %15, %13
  %.pn = phi { ptr, i32 } [ %16, %15 ], [ %14, %13 ]
  call void @llvm.lifetime.end.p0(i64 112, ptr nonnull %4) #20
  call void @_ZN4YAML6ParserD1Ev(ptr noundef nonnull align 8 dereferenceable(16) %3) #20
  call void @llvm.lifetime.end.p0(i64 16, ptr nonnull %3) #20
  resume { ptr, i32 } %.pn
}